target datalayout = "e-m:e-p270:32:32-p271:32:32-p272:64:64-i64:64-i128:128-f80:128-n8:16:32:64-S128"
target triple = "x86_64-pc-linux-gnu"

%struct.xppid_s = type { i32, ptr, ptr }
%struct.xpid_s = type { i32, i32, ptr, ptr }

@.str = private unnamed_addr constant [12 x i8] c"kill_tree.c\00", align 1
@__func__._alloc_pid = private unnamed_addr constant [11 x i8] c"_alloc_pid\00", align 1

; Function Attrs: nounwind uwtable
define internal ptr @_alloc_pid(i32 noundef %0, i32 noundef %1, ptr noundef %2, ptr noundef %3) #0 {
  %5 = alloca i32, align 4
  %6 = alloca i32, align 4
  %7 = alloca ptr, align 8
  %8 = alloca ptr, align 8
  %9 = alloca ptr, align 8
  store i32 %0, ptr %5, align 4
  store i32 %1, ptr %6, align 4
  store ptr %2, ptr %7, align 8
  store ptr %3, ptr %8, align 8
  call void @llvm.lifetime.start.p0(i64 8, ptr %9) #6
  %10 = call ptr @slurm_xcalloc(i64 noundef 1, i64 noundef 24, i1 noundef zeroext true, i1 noundef zeroext false, ptr noundef @.str, i32 noundef 79, ptr noundef @__func__._alloc_pid)
  store ptr %10, ptr %9, align 8
  %11 = load i32, ptr %5, align 4
  %12 = load ptr, ptr %9, align 8
  %13 = getelementptr inbounds nuw %struct.xpid_s, ptr %12, i32 0, i32 0
  store i32 %11, ptr %13, align 8
  %14 = load i32, ptr %6, align 4
  %15 = load ptr, ptr %9, align 8
  %16 = getelementptr inbounds nuw %struct.xpid_s, ptr %15, i32 0, i32 1
  store i32 %14, ptr %16, align 4
  %17 = load ptr, ptr %7, align 8
  %18 = call ptr @xstrdup(ptr noundef %17)
  %19 = load ptr, ptr %9, align 8
  %20 = getelementptr inbounds nuw %struct.xpid_s, ptr %19, i32 0, i32 2
  store ptr %18, ptr %20, align 8
  %21 = load ptr, ptr %8, align 8
  %22 = load ptr, ptr %9, align 8
  %23 = getelementptr inbounds nuw %struct.xpid_s, ptr %22, i32 0, i32 3
  store ptr %21, ptr %23, align 8
  %24 = load ptr, ptr %9, align 8
  call void @llvm.lifetime.end.p0(i64 8, ptr %9) #6
  ret ptr %24
}

; Function Attrs: nounwind uwtable
define internal ptr @_get_list(i32 noundef %0, ptr noundef %1, ptr noundef %2) #0 {
  %4 = alloca i32, align 4
  %5 = alloca ptr, align 8
  %6 = alloca ptr, align 8
  %7 = alloca ptr, align 8
  %8 = alloca ptr, align 8
  store i32 %0, ptr %4, align 4
  store ptr %1, ptr %5, align 8
  store ptr %2, ptr %6, align 8
  call void @llvm.lifetime.start.p0(i64 8, ptr %7) #6
  call void @llvm.lifetime.start.p0(i64 8, ptr %8) #6
  %9 = load ptr, ptr %6, align 8
  %10 = load i32, ptr %4, align 4
  %11 = srem i32 %10, 64
  %12 = sext i32 %11 to i64
  %13 = getelementptr inbounds ptr, ptr %9, i64 %12
  %14 = load ptr, ptr %13, align 8
  store ptr %14, ptr %7, align 8
  br label %15

15:                                               ; preds = %64, %3
  %16 = load ptr, ptr %7, align 8
  %17 = icmp ne ptr %16, null
  br i1 %17, label %18, label %68

18:                                               ; preds = %15
  %19 = load ptr, ptr %7, align 8
  %20 = getelementptr inbounds nuw %struct.xppid_s, ptr %19, i32 0, i32 0
  %21 = load i32, ptr %20, align 8
  %22 = load i32, ptr %4, align 4
  %23 = icmp eq i32 %21, %22
  br i1 %23, label %24, label %64

24:                                               ; preds = %18
  %25 = load ptr, ptr %7, align 8
  %26 = getelementptr inbounds nuw %struct.xppid_s, ptr %25, i32 0, i32 1
  %27 = load ptr, ptr %26, align 8
  store ptr %27, ptr %8, align 8
  br label %28

28:                                               ; preds = %31, %24
  %29 = load ptr, ptr %8, align 8
  %30 = icmp ne ptr %29, null
  br i1 %30, label %31, label %46

31:                                               ; preds = %28
  %32 = load ptr, ptr %8, align 8
  %33 = getelementptr inbounds nuw %struct.xpid_s, ptr %32, i32 0, i32 0
  %34 = load i32, ptr %33, align 8
  %35 = load ptr, ptr %8, align 8
  %36 = getelementptr inbounds nuw %struct.xpid_s, ptr %35, i32 0, i32 1
  %37 = load i32, ptr %36, align 4
  %38 = load ptr, ptr %8, align 8
  %39 = getelementptr inbounds nuw %struct.xpid_s, ptr %38, i32 0, i32 2
  %40 = load ptr, ptr %39, align 8
  %41 = load ptr, ptr %5, align 8
  %42 = call ptr @_alloc_pid(i32 noundef %34, i32 noundef %37, ptr noundef %40, ptr noundef %41)
  store ptr %42, ptr %5, align 8
  %43 = load ptr, ptr %8, align 8
  %44 = getelementptr inbounds nuw %struct.xpid_s, ptr %43, i32 0, i32 3
  %45 = load ptr, ptr %44, align 8
  store ptr %45, ptr %8, align 8
  br label %28, !llvm.loop !11

46:                                               ; preds = %28
  %47 = load ptr, ptr %7, align 8
  %48 = getelementptr inbounds nuw %struct.xppid_s, ptr %47, i32 0, i32 1
  %49 = load ptr, ptr %48, align 8
  store ptr %49, ptr %8, align 8
  br label %50

50:                                               ; preds = %53, %46
  %51 = load ptr, ptr %8, align 8
  %52 = icmp ne ptr %51, null
  br i1 %52, label %53, label %63

53:                                               ; preds = %50
  %54 = load ptr, ptr %8, align 8
  %55 = getelementptr inbounds nuw %struct.xpid_s, ptr %54, i32 0, i32 0
  %56 = load i32, ptr %55, align 8
  %57 = load ptr, ptr %5, align 8
  %58 = load ptr, ptr %6, align 8
  %59 = call ptr @_get_list(i32 noundef %56, ptr noundef %57, ptr noundef %58)
  store ptr %59, ptr %5, align 8
  %60 = load ptr, ptr %8, align 8
  %61 = getelementptr inbounds nuw %struct.xpid_s, ptr %60, i32 0, i32 3
  %62 = load ptr, ptr %61, align 8
  store ptr %62, ptr %8, align 8
  br label %50, !llvm.loop !12

63:                                               ; preds = %50
  br label %68

64:                                               ; preds = %18
  %65 = load ptr, ptr %7, align 8
  %66 = getelementptr inbounds nuw %struct.xppid_s, ptr %65, i32 0, i32 2
  %67 = load ptr, ptr %66, align 8
  store ptr %67, ptr %7, align 8
  br label %15, !llvm.loop !13

68:                                               ; preds = %63, %15
  %69 = load ptr, ptr %5, align 8
  call void @llvm.lifetime.end.p0(i64 8, ptr %8) #6
  call void @llvm.lifetime.end.p0(i64 8, ptr %7) #6
  ret ptr %69
}